target datalayout = "e-m:e-p270:32:32-p271:32:32-p272:64:64-i64:64-i128:128-f80:128-n8:16:32:64-S128"
target triple = "x86_64-pc-linux-gnu"

; Function Attrs: mustprogress nounwind uwtable
define void @_ZN6casadi13LinsolTridiagD2Ev(ptr noundef nonnull align 8 dereferenceable(184) %0) unnamed_addr #4 align 2 personality ptr @__gxx_personality_v0 {
  %2 = alloca ptr, align 8
  store ptr %0, ptr %2, align 8, !tbaa !27
  %3 = load ptr, ptr %2, align 8
  store ptr getelementptr inbounds inrange(-16, 208) ({ [28 x ptr], [3 x ptr] }, ptr @_ZTVN6casadi13LinsolTridiagE, i32 0, i32 0, i32 2), ptr %3, align 8, !tbaa !29
  %4 = getelementptr inbounds i8, ptr %3, i64 168
  store ptr getelementptr inbounds inrange(-16, 8) ({ [28 x ptr], [3 x ptr] }, ptr @_ZTVN6casadi13LinsolTridiagE, i32 0, i32 1, i32 2), ptr %4, align 8, !tbaa !29
  invoke void @_ZN6casadi13ProtoFunction9clear_memEv(ptr noundef nonnull align 8 dereferenceable(168) %3)
          to label %5 unwind label %6

5:                                                ; preds = %1
  call void @_ZN6casadi14LinsolInternalD2Ev(ptr noundef nonnull align 8 dereferenceable(184) %3) #3
  ret void

6:                                                ; preds = %1
  %7 = landingpad { ptr, i32 }
          catch ptr null
  %8 = extractvalue { ptr, i32 } %7, 0
  call void @__clang_call_terminate(ptr %8) #21
  unreachable
}