; Function Attrs: mustprogress nounwind uwtable
define void @_ZN6casadi13LinsolTridiagD2Ev(ptr noundef nonnull align 8 dereferenceable(184) initializes((0, 8), (168, 176)) %0) unnamed_addr #5 align 2 personality ptr @__gxx_personality_v0 {
  store ptr getelementptr inbounds nuw inrange(-16, 208) (i8, ptr @_ZTVN6casadi13LinsolTridiagE, i64 16), ptr %0, align 8, !tbaa !20
  %2 = getelementptr inbounds nuw i8, ptr %0, i64 168
  store ptr getelementptr inbounds nuw inrange(-16, 8) (i8, ptr @_ZTVN6casadi13LinsolTridiagE, i64 240), ptr %2, align 8, !tbaa !20
  invoke void @_ZN6casadi13ProtoFunction9clear_memEv(ptr noundef nonnull align 8 dereferenceable(168) %0)
          to label %3 unwind label %4

3:                                                ; preds = %1
  tail call void @_ZN6casadi14LinsolInternalD2Ev(ptr noundef nonnull align 8 dereferenceable(184) %0) #28
  ret void

4:                                                ; preds = %1
  %5 = landingpad { ptr, i32 }
          catch ptr null
  %6 = extractvalue { ptr, i32 } %5, 0
  tail call void @__clang_call_terminate(ptr %6) #29
  unreachable
}